; ModuleID = '27/1747.c'
source_filename = "27/1747.c"
target datalayout = "e-m:e-p270:32:32-p271:32:32-p272:64:64-i64:64-f80:128-n8:16:32:64-S128"
target triple = "x86_64-pc-linux-gnu"

@.str = private unnamed_addr constant [3 x i8] c"%d\00", align 1
@.str.1 = private unnamed_addr constant [10 x i8] c"%lf%lf%lf\00", align 1
@.str.2 = private unnamed_addr constant [17 x i8] c"x1=%.5f;x2=%.5f\0A\00", align 1
@.str.3 = private unnamed_addr constant [12 x i8] c"x1=x2=%.5f\0A\00", align 1
@.str.4 = private unnamed_addr constant [29 x i8] c"x1=%.5f+%.5fi;x2=%.5f-%.5fi\0A\00", align 1
@.str.5 = private unnamed_addr constant [35 x i8] c"x1=0.00000+%.5fi;x2=0.00000-%.5fi\0A\00", align 1

; Function Attrs: noinline nounwind uwtable
define dso_local i32 @main(i32 %0, i8** %1) #0 {
  %3 = alloca i32, align 4
  %4 = alloca i32, align 4
  %5 = alloca i8**, align 8
  %6 = alloca i32, align 4
  %7 = alloca i32, align 4
  %8 = alloca double, align 8
  %9 = alloca double, align 8
  %10 = alloca double, align 8
  %11 = alloca double, align 8
  %12 = alloca double, align 8
  %13 = alloca double, align 8
  %14 = alloca double, align 8
  %15 = alloca double, align 8
  store i32 0, i32* %3, align 4
  store i32 %0, i32* %4, align 4
  store i8** %1, i8*** %5, align 8
  %16 = call i32 (i8*, ...) @__isoc99_scanf(i8* getelementptr inbounds ([3 x i8], [3 x i8]* @.str, i64 0, i64 0), i32* %6)
  store i32 1, i32* %7, align 4
  br label %17

17:                                               ; preds = %109, %2
  %18 = load i32, i32* %7, align 4
  %19 = load i32, i32* %6, align 4
  %20 = icmp sle i32 %18, %19
  br i1 %20, label %21, label %112

21:                                               ; preds = %17
  %22 = call i32 (i8*, ...) @__isoc99_scanf(i8* getelementptr inbounds ([10 x i8], [10 x i8]* @.str.1, i64 0, i64 0), double* %8, double* %9, double* %10)
  %23 = load double, double* %9, align 8
  %24 = load double, double* %9, align 8
  %25 = fmul double %23, %24
  %26 = load double, double* %8, align 8
  %27 = fmul double 4.000000e+00, %26
  %28 = load double, double* %10, align 8
  %29 = fmul double %27, %28
  %30 = fsub double %25, %29
  store double %30, double* %13, align 8
  %31 = load double, double* %13, align 8
  %32 = fcmp ogt double %31, 0.000000e+00
  br i1 %32, label %33, label %53

33:                                               ; preds = %21
  %34 = load double, double* %9, align 8
  %35 = fneg double %34
  %36 = load double, double* %13, align 8
  %37 = call double @sqrt(double %36) #3
  %38 = fadd double %35, %37
  %39 = load double, double* %8, align 8
  %40 = fmul double 2.000000e+00, %39
  %41 = fdiv double %38, %40
  store double %41, double* %11, align 8
  %42 = load double, double* %9, align 8
  %43 = fneg double %42
  %44 = load double, double* %13, align 8
  %45 = call double @sqrt(double %44) #3
  %46 = fsub double %43, %45
  %47 = load double, double* %8, align 8
  %48 = fmul double 2.000000e+00, %47
  %49 = fdiv double %46, %48
  store double %49, double* %12, align 8
  %50 = load double, double* %11, align 8
  %51 = load double, double* %12, align 8
  %52 = call i32 (i8*, ...) @printf(i8* getelementptr inbounds ([17 x i8], [17 x i8]* @.str.2, i64 0, i64 0), double %50, double %51)
  br label %108

53:                                               ; preds = %21
  %54 = load double, double* %13, align 8
  %55 = fcmp oeq double %54, 0.000000e+00
  br i1 %55, label %56, label %75

56:                                               ; preds = %53
  %57 = load double, double* %9, align 8
  %58 = fneg double %57
  %59 = load double, double* %13, align 8
  %60 = call double @sqrt(double %59) #3
  %61 = fadd double %58, %60
  %62 = load double, double* %8, align 8
  %63 = fmul double 2.000000e+00, %62
  %64 = fdiv double %61, %63
  store double %64, double* %11, align 8
  %65 = load double, double* %9, align 8
  %66 = fneg double %65
  %67 = load double, double* %13, align 8
  %68 = call double @sqrt(double %67) #3
  %69 = fsub double %66, %68
  %70 = load double, double* %8, align 8
  %71 = fmul double 2.000000e+00, %70
  %72 = fdiv double %69, %71
  store double %72, double* %12, align 8
  %73 = load double, double* %11, align 8
  %74 = call i32 (i8*, ...) @printf(i8* getelementptr inbounds ([12 x i8], [12 x i8]* @.str.3, i64 0, i64 0), double %73)
  br label %107

75:                                               ; preds = %53
  %76 = load double, double* %9, align 8
  %77 = fneg double %76
  %78 = load double, double* %8, align 8
  %79 = fmul double 2.000000e+00, %78
  %80 = fdiv double %77, %79
  store double %80, double* %14, align 8
  %81 = load double, double* %9, align 8
  %82 = fneg double %81
  %83 = load double, double* %9, align 8
  %84 = fmul double %82, %83
  %85 = load double, double* %8, align 8
  %86 = fmul double 4.000000e+00, %85
  %87 = load double, double* %10, align 8
  %88 = fmul double %86, %87
  %89 = fadd double %84, %88
  %90 = call double @sqrt(double %89) #3
  %91 = load double, double* %8, align 8
  %92 = fmul double 2.000000e+00, %91
  %93 = fdiv double %90, %92
  store double %93, double* %15, align 8
  %94 = load double, double* %9, align 8
  %95 = fcmp une double %94, 0.000000e+00
  br i1 %95, label %96, label %102

96:                                               ; preds = %75
  %97 = load double, double* %14, align 8
  %98 = load double, double* %15, align 8
  %99 = load double, double* %14, align 8
  %100 = load double, double* %15, align 8
  %101 = call i32 (i8*, ...) @printf(i8* getelementptr inbounds ([29 x i8], [29 x i8]* @.str.4, i64 0, i64 0), double %97, double %98, double %99, double %100)
  br label %106

102:                                              ; preds = %75
  %103 = load double, double* %15, align 8
  %104 = load double, double* %15, align 8
  %105 = call i32 (i8*, ...) @printf(i8* getelementptr inbounds ([35 x i8], [35 x i8]* @.str.5, i64 0, i64 0), double %103, double %104)
  br label %106

106:                                              ; preds = %102, %96
  br label %107

107:                                              ; preds = %106, %56
  br label %108

108:                                              ; preds = %107, %33
  br label %109

109:                                              ; preds = %108
  %110 = load i32, i32* %7, align 4
  %111 = add nsw i32 %110, 1
  store i32 %111, i32* %7, align 4
  br label %17

112:                                              ; preds = %17
  ret i32 0
}

declare dso_local i32 @__isoc99_scanf(i8*, ...) #1

; Function Attrs: nounwind
declare dso_local double @sqrt(double) #2

declare dso_local i32 @printf(i8*, ...) #1


!llvm.module.flags = !{!0}
!llvm.ident = !{!1}

!0 = !{i32 1, !"wchar_size", i32 4}
!1 = !{!"clang version 10.0.0-4ubuntu1 "}
